target datalayout = "e-m:e-p270:32:32-p271:32:32-p272:64:64-i64:64-i128:128-f80:128-n8:16:32:64-S128"
target triple = "x86_64-pc-linux-gnu"

%struct.AVFormatContext = type { ptr, ptr, ptr, ptr, ptr, i32, i32, ptr, i32, ptr, i32, ptr, ptr, i64, i64, i64, i32, i32, i32, i64, i64, ptr, i32, i32, ptr, i32, i32, i32, i32, ptr, i64, i32, i32, %struct.AVIOInterruptCB, i32, i32, i32, i32, i64, i32, i32, i32, i32, i32, i32, i32, i32, i32, i32, i32, i32, i64, i32, i32, i32, i32, i32, ptr, ptr, ptr, ptr, i32, ptr, ptr, ptr, ptr, i32, ptr, ptr, i64, ptr, ptr, ptr, i64 }
%struct.AVIOInterruptCB = type { ptr, ptr }
%struct.NSVContext = type { i32, i32, ptr, i32, i32, [2 x %struct.AVPacket], i64, i32, i32, i16, i16, i16, %struct.AVRational, ptr, i32 }
%struct.AVPacket = type { ptr, i64, i64, ptr, i32, i32, i32, ptr, i32, i64, i64, ptr, ptr, %struct.AVRational }
%struct.AVRational = type { i32, i32 }

@.str.4 = private unnamed_addr constant [9 x i8] c"NSV EOF\0A\00", align 1
@.str.5 = private unnamed_addr constant [25 x i8] c"NSV resync: [%d] = %02x\0A\00", align 1
@.str.6 = private unnamed_addr constant [37 x i8] c"NSV resynced on BEEF after %d bytes\0A\00", align 1
@.str.7 = private unnamed_addr constant [37 x i8] c"NSV resynced on NSVf after %d bytes\0A\00", align 1
@.str.8 = private unnamed_addr constant [37 x i8] c"NSV resynced on NSVs after %d bytes\0A\00", align 1
@.str.9 = private unnamed_addr constant [15 x i8] c"NSV sync lost\0A\00", align 1

; Function Attrs: nounwind uwtable
define internal i32 @nsv_resync(ptr noundef %0) #0 {
  %2 = alloca i32, align 4
  %3 = alloca ptr, align 8
  %4 = alloca ptr, align 8
  %5 = alloca ptr, align 8
  %6 = alloca i32, align 4
  %7 = alloca i32, align 4
  %8 = alloca i32, align 4
  store ptr %0, ptr %3, align 8, !tbaa !19
  call void @llvm.lifetime.start.p0(i64 8, ptr %4) #8
  %9 = load ptr, ptr %3, align 8, !tbaa !19
  %10 = getelementptr inbounds nuw %struct.AVFormatContext, ptr %9, i32 0, i32 3
  %11 = load ptr, ptr %10, align 8, !tbaa !21
  store ptr %11, ptr %4, align 8, !tbaa !36
  call void @llvm.lifetime.start.p0(i64 8, ptr %5) #8
  %12 = load ptr, ptr %3, align 8, !tbaa !19
  %13 = getelementptr inbounds nuw %struct.AVFormatContext, ptr %12, i32 0, i32 4
  %14 = load ptr, ptr %13, align 8, !tbaa !63
  store ptr %14, ptr %5, align 8, !tbaa !80
  call void @llvm.lifetime.start.p0(i64 4, ptr %6) #8
  store i32 0, ptr %6, align 4, !tbaa !9
  call void @llvm.lifetime.start.p0(i64 4, ptr %7) #8
  store i32 0, ptr %7, align 4, !tbaa !9
  br label %15

15:                                               ; preds = %69, %1
  %16 = load i32, ptr %7, align 4, !tbaa !9
  %17 = icmp slt i32 %16, 512000
  br i1 %17, label %18, label %72

18:                                               ; preds = %15
  %19 = load ptr, ptr %5, align 8, !tbaa !80
  %20 = call i32 @avio_feof(ptr noundef %19)
  %21 = icmp ne i32 %20, 0
  br i1 %21, label %22, label %26

22:                                               ; preds = %18
  %23 = load ptr, ptr %3, align 8, !tbaa !19
  call void (ptr, i32, ptr, ...) @av_log(ptr noundef %23, i32 noundef 56, ptr noundef @.str.4)
  %24 = load ptr, ptr %4, align 8, !tbaa !36
  %25 = getelementptr inbounds nuw %struct.NSVContext, ptr %24, i32 0, i32 4
  store i32 0, ptr %25, align 4, !tbaa !38
  store i32 -1, ptr %2, align 4
  store i32 1, ptr %8, align 4
  br label %74

26:                                               ; preds = %18
  %27 = load i32, ptr %6, align 4, !tbaa !9
  %28 = shl i32 %27, 8
  store i32 %28, ptr %6, align 4, !tbaa !9
  %29 = load ptr, ptr %5, align 8, !tbaa !80
  %30 = call i32 @avio_r8(ptr noundef %29)
  %31 = load i32, ptr %6, align 4, !tbaa !9
  %32 = or i32 %31, %30
  store i32 %32, ptr %6, align 4, !tbaa !9
  %33 = load i32, ptr %7, align 4, !tbaa !9
  %34 = icmp slt i32 %33, 8
  br i1 %34, label %35, label %40

35:                                               ; preds = %26
  %36 = load ptr, ptr %3, align 8, !tbaa !19
  %37 = load i32, ptr %7, align 4, !tbaa !9
  %38 = load i32, ptr %6, align 4, !tbaa !9
  %39 = and i32 %38, 255
  call void (ptr, i32, ptr, ...) @av_log(ptr noundef %36, i32 noundef 56, ptr noundef @.str.5, i32 noundef %37, i32 noundef %39)
  br label %40

40:                                               ; preds = %35, %26
  %41 = load i32, ptr %6, align 4, !tbaa !9
  %42 = and i32 %41, 65535
  %43 = icmp eq i32 %42, 61374
  br i1 %43, label %44, label %50

44:                                               ; preds = %40
  %45 = load ptr, ptr %3, align 8, !tbaa !19
  %46 = load i32, ptr %7, align 4, !tbaa !9
  %47 = add nsw i32 %46, 1
  call void (ptr, i32, ptr, ...) @av_log(ptr noundef %45, i32 noundef 56, ptr noundef @.str.6, i32 noundef %47)
  %48 = load ptr, ptr %4, align 8, !tbaa !36
  %49 = getelementptr inbounds nuw %struct.NSVContext, ptr %48, i32 0, i32 4
  store i32 5, ptr %49, align 4, !tbaa !38
  store i32 0, ptr %2, align 4
  store i32 1, ptr %8, align 4
  br label %74

50:                                               ; preds = %40
  %51 = load i32, ptr %6, align 4, !tbaa !9
  %52 = icmp eq i32 %51, 1314084454
  br i1 %52, label %53, label %59

53:                                               ; preds = %50
  %54 = load ptr, ptr %3, align 8, !tbaa !19
  %55 = load i32, ptr %7, align 4, !tbaa !9
  %56 = add nsw i32 %55, 1
  call void (ptr, i32, ptr, ...) @av_log(ptr noundef %54, i32 noundef 56, ptr noundef @.str.7, i32 noundef %56)
  %57 = load ptr, ptr %4, align 8, !tbaa !36
  %58 = getelementptr inbounds nuw %struct.NSVContext, ptr %57, i32 0, i32 4
  store i32 1, ptr %58, align 4, !tbaa !38
  store i32 0, ptr %2, align 4
  store i32 1, ptr %8, align 4
  br label %74

59:                                               ; preds = %50
  %60 = load i32, ptr %6, align 4, !tbaa !9
  %61 = icmp eq i32 %60, 1314084467
  br i1 %61, label %62, label %68

62:                                               ; preds = %59
  %63 = load ptr, ptr %3, align 8, !tbaa !19
  %64 = load i32, ptr %7, align 4, !tbaa !9
  %65 = add nsw i32 %64, 1
  call void (ptr, i32, ptr, ...) @av_log(ptr noundef %63, i32 noundef 56, ptr noundef @.str.8, i32 noundef %65)
  %66 = load ptr, ptr %4, align 8, !tbaa !36
  %67 = getelementptr inbounds nuw %struct.NSVContext, ptr %66, i32 0, i32 4
  store i32 3, ptr %67, align 4, !tbaa !38
  store i32 0, ptr %2, align 4
  store i32 1, ptr %8, align 4
  br label %74

68:                                               ; preds = %59
  br label %69

69:                                               ; preds = %68
  %70 = load i32, ptr %7, align 4, !tbaa !9
  %71 = add nsw i32 %70, 1
  store i32 %71, ptr %7, align 4, !tbaa !9
  br label %15, !llvm.loop !81

72:                                               ; preds = %15
  %73 = load ptr, ptr %3, align 8, !tbaa !19
  call void (ptr, i32, ptr, ...) @av_log(ptr noundef %73, i32 noundef 56, ptr noundef @.str.9)
  store i32 -1, ptr %2, align 4
  store i32 1, ptr %8, align 4
  br label %74

74:                                               ; preds = %72, %62, %53, %44, %22
  call void @llvm.lifetime.end.p0(i64 4, ptr %7) #8
  call void @llvm.lifetime.end.p0(i64 4, ptr %6) #8
  call void @llvm.lifetime.end.p0(i64 8, ptr %5) #8
  call void @llvm.lifetime.end.p0(i64 8, ptr %4) #8
  %75 = load i32, ptr %2, align 4
  ret i32 %75
}