; Function Attrs: nounwind uwtable
define internal fastcc range(i32 -1, 1) i32 @nsv_resync(ptr noundef %0) unnamed_addr #0 {
  %2 = getelementptr inbounds nuw i8, ptr %0, i64 24
  %3 = load ptr, ptr %2, align 8, !tbaa !16
  %4 = getelementptr inbounds nuw i8, ptr %0, i64 32
  %5 = load ptr, ptr %4, align 8, !tbaa !41
  br label %6

6:                                                ; preds = %1, %28
  %.035 = phi i32 [ 0, %1 ], [ %20, %28 ]
  %.02734 = phi i32 [ 0, %1 ], [ %13, %28 ]
  %7 = tail call i32 @avio_feof(ptr noundef %5) #8
  %.not = icmp eq i32 %7, 0
  br i1 %.not, label %10, label %8

8:                                                ; preds = %6
  tail call void (ptr, i32, ptr, ...) @av_log(ptr noundef %0, i32 noundef 56, ptr noundef nonnull @.str.4) #8
  %9 = getelementptr inbounds nuw i8, ptr %3, i64 20
  store i32 0, ptr %9, align 4, !tbaa !31
  br label %30

10:                                               ; preds = %6
  %11 = shl i32 %.02734, 8
  %12 = tail call i32 @avio_r8(ptr noundef %5) #8
  %13 = or i32 %12, %11
  %14 = icmp samesign ult i32 %.035, 8
  br i1 %14, label %15, label %17

15:                                               ; preds = %10
  %16 = and i32 %12, 255
  tail call void (ptr, i32, ptr, ...) @av_log(ptr noundef %0, i32 noundef 56, ptr noundef nonnull @.str.5, i32 noundef %.035, i32 noundef %16) #8
  br label %17

17:                                               ; preds = %15, %10
  %18 = and i32 %13, 65535
  %19 = icmp eq i32 %18, 61374
  %20 = add nuw nsw i32 %.035, 1
  br i1 %19, label %21, label %23

21:                                               ; preds = %17
  tail call void (ptr, i32, ptr, ...) @av_log(ptr noundef %0, i32 noundef 56, ptr noundef nonnull @.str.6, i32 noundef %20) #8
  %22 = getelementptr inbounds nuw i8, ptr %3, i64 20
  store i32 5, ptr %22, align 4, !tbaa !31
  br label %30

23:                                               ; preds = %17
  switch i32 %13, label %28 [
    i32 1314084454, label %24
    i32 1314084467, label %26
  ]

24:                                               ; preds = %23
  tail call void (ptr, i32, ptr, ...) @av_log(ptr noundef %0, i32 noundef 56, ptr noundef nonnull @.str.7, i32 noundef %20) #8
  %25 = getelementptr inbounds nuw i8, ptr %3, i64 20
  store i32 1, ptr %25, align 4, !tbaa !31
  br label %30

26:                                               ; preds = %23
  tail call void (ptr, i32, ptr, ...) @av_log(ptr noundef %0, i32 noundef 56, ptr noundef nonnull @.str.8, i32 noundef %20) #8
  %27 = getelementptr inbounds nuw i8, ptr %3, i64 20
  store i32 3, ptr %27, align 4, !tbaa !31
  br label %30

28:                                               ; preds = %23
  %exitcond.not = icmp eq i32 %20, 512000
  br i1 %exitcond.not, label %29, label %6, !llvm.loop !78

29:                                               ; preds = %28
  tail call void (ptr, i32, ptr, ...) @av_log(ptr noundef %0, i32 noundef 56, ptr noundef nonnull @.str.9) #8
  br label %30

30:                                               ; preds = %29, %26, %24, %21, %8
  %.028 = phi i32 [ -1, %8 ], [ 0, %21 ], [ 0, %24 ], [ 0, %26 ], [ -1, %29 ]
  ret i32 %.028
}